; Function Attrs: mustprogress uwtable
define void @_ZNK5arrow8internal3Uri4hostB5cxx11Ev(ptr noalias sret(%"class.std::__cxx11::basic_string") align 8 %agg.result, ptr nocapture noundef nonnull readonly align 8 dereferenceable(8) %this) local_unnamed_addr #0 align 2 {
entry:
  %0 = load ptr, ptr %this, align 8
  %hostText = getelementptr inbounds i8, ptr %0, i64 32
  %hostText.val = load ptr, ptr %hostText, align 8
  %1 = getelementptr i8, ptr %0, i64 40
  %hostText.val1 = load ptr, ptr %1, align 8
  %cmp.i = icmp eq ptr %hostText.val, null
  %sub.ptr.lhs.cast.i = ptrtoint ptr %hostText.val1 to i64
  %sub.ptr.rhs.cast.i = ptrtoint ptr %hostText.val to i64
  %sub.ptr.sub.i = sub i64 %sub.ptr.lhs.cast.i, %sub.ptr.rhs.cast.i
  %retval.sroa.3.0.i = select i1 %cmp.i, ptr @.str.5, ptr %hostText.val
  %retval.sroa.0.0.i = select i1 %cmp.i, i64 0, i64 %sub.ptr.sub.i
  tail call void @_ZN5arrow8internal11UriUnescapeB5cxx11ESt17basic_string_viewIcSt11char_traitsIcEE(ptr sret(%"class.std::__cxx11::basic_string") align 8 %agg.result, i64 %retval.sroa.0.0.i, ptr nonnull %retval.sroa.3.0.i)
  ret void
}